target datalayout = "e-m:e-p270:32:32-p271:32:32-p272:64:64-i64:64-i128:128-f80:128-n8:16:32:64-S128"
target triple = "x86_64-pc-linux-gnu"

%struct.dt_noiseprofile_t = type { ptr, ptr, ptr, i32, [4 x i8], [4 x float], [4 x float] }

; Function Attrs: nounwind uwtable
define void @dt_noiseprofile_interpolate(ptr noundef %0, ptr noundef %1, ptr noundef %2) #0 {
  %4 = alloca ptr, align 8
  %5 = alloca ptr, align 8
  %6 = alloca ptr, align 8
  %7 = alloca float, align 4
  %8 = alloca i32, align 4
  store ptr %0, ptr %4, align 8, !tbaa !73
  store ptr %1, ptr %5, align 8, !tbaa !73
  store ptr %2, ptr %6, align 8, !tbaa !73
  call void @llvm.lifetime.start.p0(i64 4, ptr %7) #7
  %9 = load ptr, ptr %6, align 8, !tbaa !73
  %10 = getelementptr inbounds nuw %struct.dt_noiseprofile_t, ptr %9, i32 0, i32 3
  %11 = load i32, ptr %10, align 8, !tbaa !70
  %12 = load ptr, ptr %4, align 8, !tbaa !73
  %13 = getelementptr inbounds nuw %struct.dt_noiseprofile_t, ptr %12, i32 0, i32 3
  %14 = load i32, ptr %13, align 8, !tbaa !70
  %15 = sub nsw i32 %11, %14
  %16 = sitofp i32 %15 to float
  %17 = load ptr, ptr %5, align 8, !tbaa !73
  %18 = getelementptr inbounds nuw %struct.dt_noiseprofile_t, ptr %17, i32 0, i32 3
  %19 = load i32, ptr %18, align 8, !tbaa !70
  %20 = load ptr, ptr %4, align 8, !tbaa !73
  %21 = getelementptr inbounds nuw %struct.dt_noiseprofile_t, ptr %20, i32 0, i32 3
  %22 = load i32, ptr %21, align 8, !tbaa !70
  %23 = sub nsw i32 %19, %22
  %24 = sitofp i32 %23 to float
  %25 = fdiv reassoc nsz arcp contract afn float %16, %24
  %26 = fcmp reassoc nsz arcp contract afn ogt float %25, 1.000000e+00
  br i1 %26, label %27, label %28

27:                                               ; preds = %3
  br label %68

28:                                               ; preds = %3
  %29 = load ptr, ptr %6, align 8, !tbaa !73
  %30 = getelementptr inbounds nuw %struct.dt_noiseprofile_t, ptr %29, i32 0, i32 3
  %31 = load i32, ptr %30, align 8, !tbaa !70
  %32 = load ptr, ptr %4, align 8, !tbaa !73
  %33 = getelementptr inbounds nuw %struct.dt_noiseprofile_t, ptr %32, i32 0, i32 3
  %34 = load i32, ptr %33, align 8, !tbaa !70
  %35 = sub nsw i32 %31, %34
  %36 = sitofp i32 %35 to float
  %37 = load ptr, ptr %5, align 8, !tbaa !73
  %38 = getelementptr inbounds nuw %struct.dt_noiseprofile_t, ptr %37, i32 0, i32 3
  %39 = load i32, ptr %38, align 8, !tbaa !70
  %40 = load ptr, ptr %4, align 8, !tbaa !73
  %41 = getelementptr inbounds nuw %struct.dt_noiseprofile_t, ptr %40, i32 0, i32 3
  %42 = load i32, ptr %41, align 8, !tbaa !70
  %43 = sub nsw i32 %39, %42
  %44 = sitofp i32 %43 to float
  %45 = fdiv reassoc nsz arcp contract afn float %36, %44
  %46 = fcmp reassoc nsz arcp contract afn olt float %45, 0.000000e+00
  br i1 %46, label %47, label %48

47:                                               ; preds = %28
  br label %66

48:                                               ; preds = %28
  %49 = load ptr, ptr %6, align 8, !tbaa !73
  %50 = getelementptr inbounds nuw %struct.dt_noiseprofile_t, ptr %49, i32 0, i32 3
  %51 = load i32, ptr %50, align 8, !tbaa !70
  %52 = load ptr, ptr %4, align 8, !tbaa !73
  %53 = getelementptr inbounds nuw %struct.dt_noiseprofile_t, ptr %52, i32 0, i32 3
  %54 = load i32, ptr %53, align 8, !tbaa !70
  %55 = sub nsw i32 %51, %54
  %56 = sitofp i32 %55 to float
  %57 = load ptr, ptr %5, align 8, !tbaa !73
  %58 = getelementptr inbounds nuw %struct.dt_noiseprofile_t, ptr %57, i32 0, i32 3
  %59 = load i32, ptr %58, align 8, !tbaa !70
  %60 = load ptr, ptr %4, align 8, !tbaa !73
  %61 = getelementptr inbounds nuw %struct.dt_noiseprofile_t, ptr %60, i32 0, i32 3
  %62 = load i32, ptr %61, align 8, !tbaa !70
  %63 = sub nsw i32 %59, %62
  %64 = sitofp i32 %63 to float
  %65 = fdiv reassoc nsz arcp contract afn float %56, %64
  br label %66

66:                                               ; preds = %48, %47
  %67 = phi reassoc nsz arcp contract afn float [ 0.000000e+00, %47 ], [ %65, %48 ]
  br label %68

68:                                               ; preds = %66, %27
  %69 = phi reassoc nsz arcp contract afn float [ 1.000000e+00, %27 ], [ %67, %66 ]
  store float %69, ptr %7, align 4, !tbaa !71
  call void @llvm.lifetime.start.p0(i64 4, ptr %8) #7
  store i32 0, ptr %8, align 4, !tbaa !56
  br label %70

70:                                               ; preds = %121, %68
  %71 = load i32, ptr %8, align 4, !tbaa !56
  %72 = icmp slt i32 %71, 3
  br i1 %72, label %74, label %73

73:                                               ; preds = %70
  call void @llvm.lifetime.end.p0(i64 4, ptr %8) #7
  br label %124

74:                                               ; preds = %70
  %75 = load float, ptr %7, align 4, !tbaa !71
  %76 = fsub reassoc nsz arcp contract afn float 1.000000e+00, %75
  %77 = load ptr, ptr %4, align 8, !tbaa !73
  %78 = getelementptr inbounds nuw %struct.dt_noiseprofile_t, ptr %77, i32 0, i32 5
  %79 = load i32, ptr %8, align 4, !tbaa !56
  %80 = sext i32 %79 to i64
  %81 = getelementptr inbounds [4 x float], ptr %78, i64 0, i64 %80
  %82 = load float, ptr %81, align 4, !tbaa !71
  %83 = fmul reassoc nsz arcp contract afn float %76, %82
  %84 = load float, ptr %7, align 4, !tbaa !71
  %85 = load ptr, ptr %5, align 8, !tbaa !73
  %86 = getelementptr inbounds nuw %struct.dt_noiseprofile_t, ptr %85, i32 0, i32 5
  %87 = load i32, ptr %8, align 4, !tbaa !56
  %88 = sext i32 %87 to i64
  %89 = getelementptr inbounds [4 x float], ptr %86, i64 0, i64 %88
  %90 = load float, ptr %89, align 4, !tbaa !71
  %91 = fmul reassoc nsz arcp contract afn float %84, %90
  %92 = fadd reassoc nsz arcp contract afn float %83, %91
  %93 = load ptr, ptr %6, align 8, !tbaa !73
  %94 = getelementptr inbounds nuw %struct.dt_noiseprofile_t, ptr %93, i32 0, i32 5
  %95 = load i32, ptr %8, align 4, !tbaa !56
  %96 = sext i32 %95 to i64
  %97 = getelementptr inbounds [4 x float], ptr %94, i64 0, i64 %96
  store float %92, ptr %97, align 4, !tbaa !71
  %98 = load float, ptr %7, align 4, !tbaa !71
  %99 = fsub reassoc nsz arcp contract afn float 1.000000e+00, %98
  %100 = load ptr, ptr %4, align 8, !tbaa !73
  %101 = getelementptr inbounds nuw %struct.dt_noiseprofile_t, ptr %100, i32 0, i32 6
  %102 = load i32, ptr %8, align 4, !tbaa !56
  %103 = sext i32 %102 to i64
  %104 = getelementptr inbounds [4 x float], ptr %101, i64 0, i64 %103
  %105 = load float, ptr %104, align 4, !tbaa !71
  %106 = fmul reassoc nsz arcp contract afn float %99, %105
  %107 = load float, ptr %7, align 4, !tbaa !71
  %108 = load ptr, ptr %5, align 8, !tbaa !73
  %109 = getelementptr inbounds nuw %struct.dt_noiseprofile_t, ptr %108, i32 0, i32 6
  %110 = load i32, ptr %8, align 4, !tbaa !56
  %111 = sext i32 %110 to i64
  %112 = getelementptr inbounds [4 x float], ptr %109, i64 0, i64 %111
  %113 = load float, ptr %112, align 4, !tbaa !71
  %114 = fmul reassoc nsz arcp contract afn float %107, %113
  %115 = fadd reassoc nsz arcp contract afn float %106, %114
  %116 = load ptr, ptr %6, align 8, !tbaa !73
  %117 = getelementptr inbounds nuw %struct.dt_noiseprofile_t, ptr %116, i32 0, i32 6
  %118 = load i32, ptr %8, align 4, !tbaa !56
  %119 = sext i32 %118 to i64
  %120 = getelementptr inbounds [4 x float], ptr %117, i64 0, i64 %119
  store float %115, ptr %120, align 4, !tbaa !71
  br label %121

121:                                              ; preds = %74
  %122 = load i32, ptr %8, align 4, !tbaa !56
  %123 = add nsw i32 %122, 1
  store i32 %123, ptr %8, align 4, !tbaa !56
  br label %70

124:                                              ; preds = %73
  call void @llvm.lifetime.end.p0(i64 4, ptr %7) #7
  ret void
}