; Function Attrs: nofree norecurse nosync nounwind memory(argmem: readwrite) uwtable
define void @dt_noiseprofile_interpolate(ptr noundef readonly captures(none) %0, ptr noundef readonly captures(none) %1, ptr noundef captures(none) %2) local_unnamed_addr #10 {
  %4 = getelementptr inbounds nuw i8, ptr %2, i64 24
  %5 = load i32, ptr %4, align 8, !tbaa !58
  %6 = getelementptr inbounds nuw i8, ptr %0, i64 24
  %7 = load i32, ptr %6, align 8, !tbaa !58
  %8 = sub nsw i32 %5, %7
  %9 = sitofp i32 %8 to float
  %10 = getelementptr inbounds nuw i8, ptr %1, i64 24
  %11 = load i32, ptr %10, align 8, !tbaa !58
  %12 = sub nsw i32 %11, %7
  %13 = sitofp i32 %12 to float
  %14 = fdiv reassoc nsz arcp contract afn float %9, %13
  %15 = fcmp reassoc nsz arcp contract afn ogt float %14, 1.000000e+00
  br i1 %15, label %19, label %16

16:                                               ; preds = %3
  %17 = fcmp reassoc nsz arcp contract afn olt float %14, 0.000000e+00
  br i1 %17, label %19, label %18

18:                                               ; preds = %16
  br label %19

19:                                               ; preds = %18, %16, %3
  %20 = phi reassoc nsz arcp contract afn float [ 1.000000e+00, %3 ], [ %14, %18 ], [ 0.000000e+00, %16 ]
  %21 = fsub reassoc nsz arcp contract afn float 1.000000e+00, %20
  %22 = getelementptr inbounds nuw i8, ptr %0, i64 32
  %23 = getelementptr inbounds nuw i8, ptr %1, i64 32
  %24 = getelementptr inbounds nuw i8, ptr %2, i64 32
  %25 = getelementptr inbounds nuw i8, ptr %0, i64 48
  %26 = getelementptr inbounds nuw i8, ptr %1, i64 48
  %27 = getelementptr inbounds nuw i8, ptr %2, i64 48
  br label %29

28:                                               ; preds = %29
  ret void

29:                                               ; preds = %19, %29
  %indvars.iv = phi i64 [ 0, %19 ], [ %indvars.iv.next, %29 ]
  %30 = getelementptr inbounds nuw [4 x float], ptr %22, i64 0, i64 %indvars.iv
  %31 = load float, ptr %30, align 4, !tbaa !59
  %32 = fmul reassoc nsz arcp contract afn float %31, %21
  %33 = getelementptr inbounds nuw [4 x float], ptr %23, i64 0, i64 %indvars.iv
  %34 = load float, ptr %33, align 4, !tbaa !59
  %35 = fmul reassoc nsz arcp contract afn float %34, %20
  %36 = fadd reassoc nsz arcp contract afn float %35, %32
  %37 = getelementptr inbounds nuw [4 x float], ptr %24, i64 0, i64 %indvars.iv
  store float %36, ptr %37, align 4, !tbaa !59
  %38 = getelementptr inbounds nuw [4 x float], ptr %25, i64 0, i64 %indvars.iv
  %39 = load float, ptr %38, align 4, !tbaa !59
  %40 = fmul reassoc nsz arcp contract afn float %39, %21
  %41 = getelementptr inbounds nuw [4 x float], ptr %26, i64 0, i64 %indvars.iv
  %42 = load float, ptr %41, align 4, !tbaa !59
  %43 = fmul reassoc nsz arcp contract afn float %42, %20
  %44 = fadd reassoc nsz arcp contract afn float %43, %40
  %45 = getelementptr inbounds nuw [4 x float], ptr %27, i64 0, i64 %indvars.iv
  store float %44, ptr %45, align 4, !tbaa !59
  %indvars.iv.next = add nuw nsw i64 %indvars.iv, 1
  %exitcond.not = icmp eq i64 %indvars.iv.next, 3
  br i1 %exitcond.not, label %28, label %29
}